target datalayout = "e-m:e-p270:32:32-p271:32:32-p272:64:64-i64:64-i128:128-f80:128-n8:16:32:64-S128"
target triple = "x86_64-pc-linux-gnu"

%struct.TIME_t = type { i64 }
%struct.LZ4F_preferences_t = type { %struct.LZ4F_frameInfo_t, i32, i32, i32, [3 x i32] }
%struct.LZ4F_frameInfo_t = type { i32, i32, i32, i32, i64, i32, i32 }
%struct.cRess_t = type { ptr, i64, ptr, i64, ptr, %struct.LZ4F_preferences_t, ptr, ptr, ptr }

@g_displayLevel = internal global i32 0, align 4
@stderr = external global ptr, align 8
@.str.3 = private unnamed_addr constant [7 x i8] c"stdout\00", align 1
@.str.49 = private unnamed_addr constant [52 x i8] c"Done in %.2f s ==> %.2f MiB/s  (cpu load : %.0f%%)\0A\00", align 1

; Function Attrs: nounwind uwtable
define internal double @cpuTimeSpan_sec(double noundef %0) #0 {
  %2 = alloca double, align 8
  store double %0, ptr %2, align 8, !tbaa !35
  %3 = call double @cpuTime_sec()
  %4 = load double, ptr %2, align 8, !tbaa !35
  %5 = fsub double %3, %4
  ret double %5
}

; Function Attrs: nounwind uwtable
define internal i32 @UTIL_sameString(ptr noundef %0, ptr noundef %1) #0 {
  %3 = alloca i32, align 4
  %4 = alloca ptr, align 8
  %5 = alloca ptr, align 8
  store ptr %0, ptr %4, align 8, !tbaa !31
  store ptr %1, ptr %5, align 8, !tbaa !31
  %6 = load ptr, ptr %4, align 8, !tbaa !31
  %7 = icmp eq ptr %6, null
  br i1 %7, label %8, label %9

8:                                                ; preds = %2
  store i32 0, ptr %3, align 4
  br label %20

9:                                                ; preds = %2
  %10 = load ptr, ptr %5, align 8, !tbaa !31
  %11 = icmp eq ptr %10, null
  br i1 %11, label %12, label %13

12:                                               ; preds = %9
  store i32 0, ptr %3, align 4
  br label %20

13:                                               ; preds = %9
  %14 = load ptr, ptr %4, align 8, !tbaa !31
  %15 = load ptr, ptr %5, align 8, !tbaa !31
  %16 = call i32 @strcmp(ptr noundef %14, ptr noundef %15) #16
  %17 = icmp ne i32 %16, 0
  %18 = xor i1 %17, true
  %19 = zext i1 %18 to i32
  store i32 %19, ptr %3, align 4
  br label %20

20:                                               ; preds = %13, %12, %8
  %21 = load i32, ptr %3, align 4
  ret i32 %21
}

; Function Attrs: nounwind uwtable
define internal void @LZ4IO_finalTimeDisplay(i64 %0, double noundef %1, i64 noundef %2) #0 {
  %4 = alloca %struct.TIME_t, align 8
  %5 = alloca double, align 8
  %6 = alloca i64, align 8
  %7 = alloca i64, align 8
  %8 = alloca double, align 8
  %9 = alloca double, align 8
  %10 = getelementptr inbounds nuw %struct.TIME_t, ptr %4, i32 0, i32 0
  store i64 %0, ptr %10, align 8
  store double %1, ptr %5, align 8, !tbaa !35
  store i64 %2, ptr %6, align 8, !tbaa !37
  call void @llvm.lifetime.start.p0(i64 8, ptr %7) #13
  %11 = getelementptr inbounds nuw %struct.TIME_t, ptr %4, i32 0, i32 0
  %12 = load i64, ptr %11, align 8
  %13 = call i64 @TIME_clockSpan_ns(i64 %12)
  store i64 %13, ptr %7, align 8, !tbaa !37
  call void @llvm.lifetime.start.p0(i64 8, ptr %8) #13
  %14 = load i64, ptr %7, align 8, !tbaa !37
  %15 = load i64, ptr %7, align 8, !tbaa !37
  %16 = icmp ne i64 %15, 0
  %17 = xor i1 %16, true
  %18 = zext i1 %17 to i32
  %19 = sext i32 %18 to i64
  %20 = add i64 %14, %19
  %21 = uitofp i64 %20 to double
  %22 = fdiv double %21, 1.000000e+09
  store double %22, ptr %8, align 8, !tbaa !35
  call void @llvm.lifetime.start.p0(i64 8, ptr %9) #13
  %23 = load double, ptr %5, align 8, !tbaa !35
  %24 = call double @cpuTimeSpan_sec(double noundef %23)
  store double %24, ptr %9, align 8, !tbaa !35
  %25 = load i32, ptr @g_displayLevel, align 4, !tbaa !9
  %26 = icmp sge i32 %25, 3
  br i1 %26, label %27, label %47

27:                                               ; preds = %3
  %28 = load ptr, ptr @stderr, align 8, !tbaa !11
  %29 = load double, ptr %8, align 8, !tbaa !35
  %30 = load i64, ptr %6, align 8, !tbaa !37
  %31 = uitofp i64 %30 to double
  %32 = load double, ptr %8, align 8, !tbaa !35
  %33 = fdiv double %31, %32
  %34 = fdiv double %33, 1.024000e+03
  %35 = fdiv double %34, 1.024000e+03
  %36 = load double, ptr %9, align 8, !tbaa !35
  %37 = load double, ptr %8, align 8, !tbaa !35
  %38 = fdiv double %36, %37
  %39 = fmul double %38, 1.000000e+02
  %40 = call i32 (ptr, ptr, ...) @fprintf(ptr noundef %28, ptr noundef @.str.49, double noundef %29, double noundef %35, double noundef %39) #13
  %41 = load i32, ptr @g_displayLevel, align 4, !tbaa !9
  %42 = icmp sge i32 %41, 4
  br i1 %42, label %43, label %46

43:                                               ; preds = %27
  %44 = load ptr, ptr @stderr, align 8, !tbaa !11
  %45 = call i32 @fflush(ptr noundef %44)
  br label %46

46:                                               ; preds = %43, %27
  br label %47

47:                                               ; preds = %46, %3
  call void @llvm.lifetime.end.p0(i64 8, ptr %9) #13
  call void @llvm.lifetime.end.p0(i64 8, ptr %8) #13
  call void @llvm.lifetime.end.p0(i64 8, ptr %7) #13
  ret void
}

; Function Attrs: nounwind uwtable
define internal i32 @LZ4IO_compressFilename_extRess(ptr noundef %0, ptr noundef %1, ptr noundef %2, ptr noundef %3, i32 noundef %4, ptr noundef %5) #0 {
  %7 = alloca ptr, align 8
  %8 = alloca ptr, align 8
  %9 = alloca ptr, align 8
  %10 = alloca ptr, align 8
  %11 = alloca i32, align 4
  %12 = alloca ptr, align 8
  store ptr %0, ptr %7, align 8, !tbaa !39
  store ptr %1, ptr %8, align 8, !tbaa !41
  store ptr %2, ptr %9, align 8, !tbaa !31
  store ptr %3, ptr %10, align 8, !tbaa !31
  store i32 %4, ptr %11, align 4, !tbaa !9
  store ptr %5, ptr %12, align 8, !tbaa !4
  %13 = load ptr, ptr %7, align 8, !tbaa !39
  %14 = load ptr, ptr %8, align 8, !tbaa !41
  %15 = load ptr, ptr %9, align 8, !tbaa !31
  %16 = load ptr, ptr %10, align 8, !tbaa !31
  %17 = load i32, ptr %11, align 4, !tbaa !9
  %18 = load ptr, ptr %12, align 8, !tbaa !4
  %19 = call i32 @LZ4IO_compressFilename_extRess_ST(ptr noundef %13, ptr noundef %14, ptr noundef %15, ptr noundef %16, i32 noundef %17, ptr noundef %18)
  ret i32 %19
}

; Function Attrs: nounwind uwtable
define internal i32 @LZ4IO_isStdout(ptr noundef %0) #0 {
  %2 = alloca ptr, align 8
  store ptr %0, ptr %2, align 8, !tbaa !31
  %3 = load ptr, ptr %2, align 8, !tbaa !31
  %4 = call i32 @UTIL_sameString(ptr noundef %3, ptr noundef @.str.3)
  ret i32 %4
}

; Function Attrs: nounwind uwtable
define internal double @cpuTime_sec() #0 {
  %1 = call i64 @clock() #13
  %2 = sitofp i64 %1 to double
  %3 = fdiv double %2, 1.000000e+06
  ret double %3
}

; Function Attrs: nounwind uwtable
define dso_local i32 @LZ4IO_compressMultipleFilenames(ptr noundef %0, i32 noundef %1, ptr noundef %2, i32 noundef %3, ptr noundef %4) #0 {
  %6 = alloca i32, align 4
  %7 = alloca ptr, align 8
  %8 = alloca i32, align 4
  %9 = alloca ptr, align 8
  %10 = alloca i32, align 4
  %11 = alloca ptr, align 8
  %12 = alloca i32, align 4
  %13 = alloca i32, align 4
  %14 = alloca ptr, align 8
  %15 = alloca i64, align 8
  %16 = alloca i64, align 8
  %17 = alloca %struct.cRess_t, align 8
  %18 = alloca i64, align 8
  %19 = alloca %struct.TIME_t, align 8
  %20 = alloca double, align 8
  %21 = alloca i32, align 4
  %22 = alloca %struct.cRess_t, align 8
  %23 = alloca i64, align 8
  %24 = alloca i64, align 8
  store ptr %0, ptr %7, align 8, !tbaa !64
  store i32 %1, ptr %8, align 4, !tbaa !9
  store ptr %2, ptr %9, align 8, !tbaa !31
  store i32 %3, ptr %10, align 4, !tbaa !9
  store ptr %4, ptr %11, align 8, !tbaa !4
  call void @llvm.lifetime.start.p0(i64 4, ptr %12) #13
  call void @llvm.lifetime.start.p0(i64 4, ptr %13) #13
  store i32 0, ptr %13, align 4, !tbaa !9
  call void @llvm.lifetime.start.p0(i64 8, ptr %14) #13
  %25 = call noalias ptr @malloc(i64 noundef 30) #14
  store ptr %25, ptr %14, align 8, !tbaa !31
  call void @llvm.lifetime.start.p0(i64 8, ptr %15) #13
  store i64 30, ptr %15, align 8, !tbaa !32
  call void @llvm.lifetime.start.p0(i64 8, ptr %16) #13
  %26 = load ptr, ptr %9, align 8, !tbaa !31
  %27 = call i64 @strlen(ptr noundef %26) #16
  store i64 %27, ptr %16, align 8, !tbaa !32
  call void @llvm.lifetime.start.p0(i64 120, ptr %17) #13
  call void @llvm.lifetime.start.p0(i64 8, ptr %18) #13
  store i64 0, ptr %18, align 8, !tbaa !37
  call void @llvm.lifetime.start.p0(i64 8, ptr %19) #13
  %28 = call i64 @TIME_getTime()
  %29 = getelementptr inbounds nuw %struct.TIME_t, ptr %19, i32 0, i32 0
  store i64 %28, ptr %29, align 8
  call void @llvm.lifetime.start.p0(i64 8, ptr %20) #13
  %30 = call double @cpuTime_sec()
  store double %30, ptr %20, align 8, !tbaa !35
  %31 = load ptr, ptr %14, align 8, !tbaa !31
  %32 = icmp eq ptr %31, null
  br i1 %32, label %33, label %35

33:                                               ; preds = %5
  %34 = load i32, ptr %8, align 4, !tbaa !9
  store i32 %34, ptr %6, align 4
  store i32 1, ptr %21, align 4
  br label %121

35:                                               ; preds = %5
  call void @llvm.lifetime.start.p0(i64 120, ptr %22) #13
  %36 = load ptr, ptr %11, align 8, !tbaa !4
  call void @LZ4IO_createCResources(ptr dead_on_unwind writable sret(%struct.cRess_t) align 8 %22, ptr noundef %36)
  call void @llvm.memcpy.p0.p0.i64(ptr align 8 %17, ptr align 8 %22, i64 120, i1 false), !tbaa.struct !130
  call void @llvm.lifetime.end.p0(i64 120, ptr %22) #13
  store i32 0, ptr %12, align 4, !tbaa !9
  br label %37

37:                                               ; preds = %111, %35
  %38 = load i32, ptr %12, align 4, !tbaa !9
  %39 = load i32, ptr %8, align 4, !tbaa !9
  %40 = icmp slt i32 %38, %39
  br i1 %40, label %41, label %114

41:                                               ; preds = %37
  call void @llvm.lifetime.start.p0(i64 8, ptr %23) #13
  call void @llvm.lifetime.start.p0(i64 8, ptr %24) #13
  %42 = load ptr, ptr %7, align 8, !tbaa !64
  %43 = load i32, ptr %12, align 4, !tbaa !9
  %44 = sext i32 %43 to i64
  %45 = getelementptr inbounds ptr, ptr %42, i64 %44
  %46 = load ptr, ptr %45, align 8, !tbaa !31
  %47 = call i64 @strlen(ptr noundef %46) #16
  store i64 %47, ptr %24, align 8, !tbaa !32
  %48 = load ptr, ptr %9, align 8, !tbaa !31
  %49 = call i32 @LZ4IO_isStdout(ptr noundef %48)
  %50 = icmp ne i32 %49, 0
  br i1 %50, label %51, label %65

51:                                               ; preds = %41
  %52 = load ptr, ptr %7, align 8, !tbaa !64
  %53 = load i32, ptr %12, align 4, !tbaa !9
  %54 = sext i32 %53 to i64
  %55 = getelementptr inbounds ptr, ptr %52, i64 %54
  %56 = load ptr, ptr %55, align 8, !tbaa !31
  %57 = load i32, ptr %10, align 4, !tbaa !9
  %58 = load ptr, ptr %11, align 8, !tbaa !4
  %59 = call i32 @LZ4IO_compressFilename_extRess(ptr noundef %23, ptr noundef %17, ptr noundef %56, ptr noundef @.str.3, i32 noundef %57, ptr noundef %58)
  %60 = load i32, ptr %13, align 4, !tbaa !9
  %61 = add nsw i32 %60, %59
  store i32 %61, ptr %13, align 4, !tbaa !9
  %62 = load i64, ptr %23, align 8, !tbaa !37
  %63 = load i64, ptr %18, align 8, !tbaa !37
  %64 = add i64 %63, %62
  store i64 %64, ptr %18, align 8, !tbaa !37
  store i32 4, ptr %21, align 4
  br label %108

65:                                               ; preds = %41
  %66 = load i64, ptr %15, align 8, !tbaa !32
  %67 = load i64, ptr %24, align 8, !tbaa !32
  %68 = load i64, ptr %16, align 8, !tbaa !32
  %69 = add i64 %67, %68
  %70 = add i64 %69, 1
  %71 = icmp ule i64 %66, %70
  br i1 %71, label %72, label %83

72:                                               ; preds = %65
  %73 = load ptr, ptr %14, align 8, !tbaa !31
  call void @free(ptr noundef %73) #13
  %74 = load i64, ptr %24, align 8, !tbaa !32
  %75 = add i64 %74, 20
  store i64 %75, ptr %15, align 8, !tbaa !32
  %76 = load i64, ptr %15, align 8, !tbaa !32
  %77 = call noalias ptr @malloc(i64 noundef %76) #14
  store ptr %77, ptr %14, align 8, !tbaa !31
  %78 = load ptr, ptr %14, align 8, !tbaa !31
  %79 = icmp eq ptr %78, null
  br i1 %79, label %80, label %82

80:                                               ; preds = %72
  call void @LZ4IO_freeCResources(ptr noundef byval(%struct.cRess_t) align 8 %17)
  %81 = load i32, ptr %8, align 4, !tbaa !9
  store i32 %81, ptr %6, align 4
  store i32 1, ptr %21, align 4
  br label %108

82:                                               ; preds = %72
  br label %83

83:                                               ; preds = %82, %65
  %84 = load ptr, ptr %14, align 8, !tbaa !31
  %85 = load ptr, ptr %7, align 8, !tbaa !64
  %86 = load i32, ptr %12, align 4, !tbaa !9
  %87 = sext i32 %86 to i64
  %88 = getelementptr inbounds ptr, ptr %85, i64 %87
  %89 = load ptr, ptr %88, align 8, !tbaa !31
  %90 = call ptr @strcpy(ptr noundef %84, ptr noundef %89) #13
  %91 = load ptr, ptr %14, align 8, !tbaa !31
  %92 = load ptr, ptr %9, align 8, !tbaa !31
  %93 = call ptr @strcat(ptr noundef %91, ptr noundef %92) #13
  %94 = load ptr, ptr %7, align 8, !tbaa !64
  %95 = load i32, ptr %12, align 4, !tbaa !9
  %96 = sext i32 %95 to i64
  %97 = getelementptr inbounds ptr, ptr %94, i64 %96
  %98 = load ptr, ptr %97, align 8, !tbaa !31
  %99 = load ptr, ptr %14, align 8, !tbaa !31
  %100 = load i32, ptr %10, align 4, !tbaa !9
  %101 = load ptr, ptr %11, align 8, !tbaa !4
  %102 = call i32 @LZ4IO_compressFilename_extRess(ptr noundef %23, ptr noundef %17, ptr noundef %98, ptr noundef %99, i32 noundef %100, ptr noundef %101)
  %103 = load i32, ptr %13, align 4, !tbaa !9
  %104 = add nsw i32 %103, %102
  store i32 %104, ptr %13, align 4, !tbaa !9
  %105 = load i64, ptr %23, align 8, !tbaa !37
  %106 = load i64, ptr %18, align 8, !tbaa !37
  %107 = add i64 %106, %105
  store i64 %107, ptr %18, align 8, !tbaa !37
  store i32 0, ptr %21, align 4
  br label %108

108:                                              ; preds = %83, %80, %51
  call void @llvm.lifetime.end.p0(i64 8, ptr %24) #13
  call void @llvm.lifetime.end.p0(i64 8, ptr %23) #13
  %109 = load i32, ptr %21, align 4
  switch i32 %109, label %121 [
    i32 0, label %110
    i32 4, label %111
  ]

110:                                              ; preds = %108
  br label %111

111:                                              ; preds = %110, %108
  %112 = load i32, ptr %12, align 4, !tbaa !9
  %113 = add nsw i32 %112, 1
  store i32 %113, ptr %12, align 4, !tbaa !9
  br label %37, !llvm.loop !132

114:                                              ; preds = %37
  call void @LZ4IO_freeCResources(ptr noundef byval(%struct.cRess_t) align 8 %17)
  %115 = load ptr, ptr %14, align 8, !tbaa !31
  call void @free(ptr noundef %115) #13
  %116 = load double, ptr %20, align 8, !tbaa !35
  %117 = load i64, ptr %18, align 8, !tbaa !37
  %118 = getelementptr inbounds nuw %struct.TIME_t, ptr %19, i32 0, i32 0
  %119 = load i64, ptr %118, align 8
  call void @LZ4IO_finalTimeDisplay(i64 %119, double noundef %116, i64 noundef %117)
  %120 = load i32, ptr %13, align 4, !tbaa !9
  store i32 %120, ptr %6, align 4
  store i32 1, ptr %21, align 4
  br label %121

121:                                              ; preds = %114, %108, %33
  call void @llvm.lifetime.end.p0(i64 8, ptr %20) #13
  call void @llvm.lifetime.end.p0(i64 8, ptr %19) #13
  call void @llvm.lifetime.end.p0(i64 8, ptr %18) #13
  call void @llvm.lifetime.end.p0(i64 120, ptr %17) #13
  call void @llvm.lifetime.end.p0(i64 8, ptr %16) #13
  call void @llvm.lifetime.end.p0(i64 8, ptr %15) #13
  call void @llvm.lifetime.end.p0(i64 8, ptr %14) #13
  call void @llvm.lifetime.end.p0(i64 4, ptr %13) #13
  call void @llvm.lifetime.end.p0(i64 4, ptr %12) #13
  %122 = load i32, ptr %6, align 4
  ret i32 %122
}