; Function Attrs: nounwind uwtable
define dso_local i32 @LZ4IO_compressMultipleFilenames(ptr noundef readonly captures(none) %0, i32 noundef %1, ptr noundef readonly captures(none) %2, i32 noundef %3, ptr noundef readonly captures(none) %4) local_unnamed_addr #11 {
  %6 = alloca %struct.cRess_t, align 8
  %7 = alloca i64, align 8
  %8 = tail call noalias dereferenceable_or_null(30) ptr @malloc(i64 noundef 30) #25
  %9 = tail call i64 @strlen(ptr noundef nonnull dereferenceable(1) %2) #30
  call void @llvm.lifetime.start.p0(i64 120, ptr nonnull %6) #24
  %10 = tail call i64 @TIME_getTime() #24
  %11 = tail call i64 @clock() #24
  %12 = sitofp i64 %11 to double
  %13 = fdiv double %12, 1.000000e+06
  %14 = icmp eq ptr %8, null
  br i1 %14, label %LZ4IO_finalTimeDisplay.exit, label %15

15:                                               ; preds = %5
  call fastcc void @LZ4IO_createCResources(ptr dead_on_unwind noalias writable align 8 %6, ptr noundef %4)
  %16 = icmp sgt i32 %1, 0
  br i1 %16, label %LZ4IO_isStdout.exit.lr.ph, label %._crit_edge

LZ4IO_isStdout.exit.lr.ph:                        ; preds = %15
  %17 = add i64 %9, 1
  %wide.trip.count = zext nneg i32 %1 to i64
  br label %LZ4IO_isStdout.exit

LZ4IO_isStdout.exit:                              ; preds = %LZ4IO_isStdout.exit.lr.ph, %37
  %indvars.iv = phi i64 [ 0, %LZ4IO_isStdout.exit.lr.ph ], [ %indvars.iv.next, %37 ]
  %.04376 = phi i32 [ 0, %LZ4IO_isStdout.exit.lr.ph ], [ %.144.ph, %37 ]
  %.04575 = phi i64 [ 0, %LZ4IO_isStdout.exit.lr.ph ], [ %.146.ph, %37 ]
  %.04774 = phi ptr [ %8, %LZ4IO_isStdout.exit.lr.ph ], [ %.148.ph, %37 ]
  %.05073 = phi i64 [ 30, %LZ4IO_isStdout.exit.lr.ph ], [ %.151.ph, %37 ]
  call void @llvm.lifetime.start.p0(i64 8, ptr nonnull %7) #24
  %18 = getelementptr inbounds nuw ptr, ptr %0, i64 %indvars.iv
  %19 = load ptr, ptr %18, align 8, !tbaa !58
  %20 = call i64 @strlen(ptr noundef nonnull dereferenceable(1) %19) #30
  %21 = call i32 @strcmp(ptr noundef nonnull readonly dereferenceable(1) %2, ptr noundef nonnull dereferenceable(7) @.str.3) #30
  %.not.i.i.not = icmp eq i32 %21, 0
  br i1 %.not.i.i.not, label %22, label %24

22:                                               ; preds = %LZ4IO_isStdout.exit
  %23 = call range(i32 0, 2) i32 @LZ4IO_compressFilename_extRess_ST(ptr noundef nonnull %7, ptr noundef nonnull readonly %6, ptr noundef nonnull %19, ptr noundef nonnull @.str.3, i32 noundef %3, ptr noundef readonly %4)
  br label %37

24:                                               ; preds = %LZ4IO_isStdout.exit
  %25 = add i64 %17, %20
  %.not57 = icmp ugt i64 %.05073, %25
  br i1 %.not57, label %30, label %26

26:                                               ; preds = %24
  call void @free(ptr noundef %.04774) #24
  %27 = add i64 %20, 20
  %28 = call noalias ptr @malloc(i64 noundef %27) #25
  %29 = icmp eq ptr %28, null
  br i1 %29, label %36, label %._crit_edge81

._crit_edge81:                                    ; preds = %26
  %.pre = load ptr, ptr %18, align 8, !tbaa !58
  br label %30

30:                                               ; preds = %._crit_edge81, %24
  %31 = phi ptr [ %.pre, %._crit_edge81 ], [ %19, %24 ]
  %.252 = phi i64 [ %27, %._crit_edge81 ], [ %.05073, %24 ]
  %.249 = phi ptr [ %28, %._crit_edge81 ], [ %.04774, %24 ]
  %32 = call ptr @strcpy(ptr noundef nonnull dereferenceable(1) %.249, ptr noundef nonnull dereferenceable(1) %31) #24
  %33 = call ptr @strcat(ptr noundef nonnull dereferenceable(1) %.249, ptr noundef nonnull dereferenceable(1) %2) #24
  %34 = load ptr, ptr %18, align 8, !tbaa !58
  %35 = call range(i32 0, 2) i32 @LZ4IO_compressFilename_extRess_ST(ptr noundef nonnull %7, ptr noundef nonnull readonly %6, ptr noundef %34, ptr noundef nonnull %.249, i32 noundef %3, ptr noundef readonly %4)
  br label %37

36:                                               ; preds = %26
  call fastcc void @LZ4IO_freeCResources(ptr noundef nonnull byval(%struct.cRess_t) align 8 %6)
  call void @llvm.lifetime.end.p0(i64 8, ptr nonnull %7) #24
  br label %LZ4IO_finalTimeDisplay.exit

37:                                               ; preds = %22, %30
  %.151.ph = phi i64 [ %.252, %30 ], [ %.05073, %22 ]
  %.148.ph = phi ptr [ %.249, %30 ], [ %.04774, %22 ]
  %.pn69 = phi i32 [ %35, %30 ], [ %23, %22 ]
  %.144.ph = add nuw nsw i32 %.pn69, %.04376
  %.pn = load i64, ptr %7, align 8, !tbaa !32
  %.146.ph = add i64 %.pn, %.04575
  call void @llvm.lifetime.end.p0(i64 8, ptr nonnull %7) #24
  %indvars.iv.next = add nuw nsw i64 %indvars.iv, 1
  %exitcond.not = icmp eq i64 %indvars.iv.next, %wide.trip.count
  br i1 %exitcond.not, label %._crit_edge.loopexit, label %LZ4IO_isStdout.exit, !llvm.loop !122

._crit_edge.loopexit:                             ; preds = %37
  %38 = uitofp i64 %.146.ph to double
  br label %._crit_edge

._crit_edge:                                      ; preds = %._crit_edge.loopexit, %15
  %.047.lcssa = phi ptr [ %8, %15 ], [ %.148.ph, %._crit_edge.loopexit ]
  %.045.lcssa = phi double [ 0.000000e+00, %15 ], [ %38, %._crit_edge.loopexit ]
  %.043.lcssa = phi i32 [ 0, %15 ], [ %.144.ph, %._crit_edge.loopexit ]
  call fastcc void @LZ4IO_freeCResources(ptr noundef nonnull byval(%struct.cRess_t) align 8 %6)
  call void @free(ptr noundef %.047.lcssa) #24
  %39 = call i64 @TIME_clockSpan_ns(i64 %10) #24
  %40 = call i64 @clock() #24
  %41 = load i32, ptr @g_displayLevel, align 4, !tbaa !4
  %42 = icmp sgt i32 %41, 2
  br i1 %42, label %43, label %LZ4IO_finalTimeDisplay.exit

43:                                               ; preds = %._crit_edge
  %44 = sitofp i64 %40 to double
  %45 = fdiv double %44, 1.000000e+06
  %46 = fsub double %45, %13
  %47 = call i64 @llvm.umax.i64(i64 %39, i64 1)
  %48 = uitofp i64 %47 to double
  %49 = fdiv double %48, 1.000000e+09
  %50 = load ptr, ptr @stderr, align 8, !tbaa !8
  %51 = fdiv double %.045.lcssa, %49
  %52 = fmul double %51, 0x3F50000000000000
  %53 = fmul double %52, 0x3F50000000000000
  %54 = fdiv double %46, %49
  %55 = fmul double %54, 1.000000e+02
  %56 = call i32 (ptr, ptr, ...) @fprintf(ptr noundef %50, ptr noundef nonnull @.str.49, double noundef %49, double noundef %53, double noundef %55) #26
  %57 = load i32, ptr @g_displayLevel, align 4, !tbaa !4
  %58 = icmp sgt i32 %57, 3
  br i1 %58, label %59, label %LZ4IO_finalTimeDisplay.exit

59:                                               ; preds = %43
  %60 = load ptr, ptr @stderr, align 8, !tbaa !8
  %61 = call i32 @fflush(ptr noundef %60)
  br label %LZ4IO_finalTimeDisplay.exit

LZ4IO_finalTimeDisplay.exit:                      ; preds = %59, %43, %._crit_edge, %36, %5
  %.0 = phi i32 [ %1, %36 ], [ %1, %5 ], [ %.043.lcssa, %._crit_edge ], [ %.043.lcssa, %43 ], [ %.043.lcssa, %59 ]
  call void @llvm.lifetime.end.p0(i64 120, ptr nonnull %6) #24
  ret i32 %.0
}